target datalayout = "e-m:e-p270:32:32-p271:32:32-p272:64:64-i64:64-i128:128-f80:128-n8:16:32:64-S128"
target triple = "x86_64-pc-linux-gnu"

%struct.Curl_cftype = type { ptr, i32, i32, ptr, ptr, ptr, ptr, ptr, ptr, ptr, ptr, ptr, ptr, ptr, ptr, ptr }
%struct.Curl_cfilter = type { ptr, ptr, ptr, ptr, i32, i8 }
%struct.cf_call_data = type { ptr }
%struct.cf_h2_proxy_ctx = type { ptr, %struct.cf_call_data, %struct.bufq, %struct.bufq, %struct.tunnel_stream, i32, i32, i8 }
%struct.bufq = type { ptr, ptr, ptr, ptr, i64, i64, i64, i32 }
%struct.tunnel_stream = type { ptr, %struct.bufq, %struct.bufq, ptr, i32, i32, i32, i8 }
%struct.Curl_easy = type { i32, i64, i64, ptr, %struct.Curl_llist_node, %struct.Curl_llist_node, i32, i32, %struct.Curl_message, %struct.easy_pollset, %struct.Names, ptr, ptr, ptr, %struct.SingleRequest, %struct.UserDefined, ptr, ptr, %struct.Progress, %struct.UrlState, ptr, %struct.PureInfo, %struct.curl_tlssessioninfo }
%struct.Curl_llist_node = type { ptr, ptr, ptr, ptr }
%struct.Curl_message = type { %struct.Curl_llist_node, %struct.CURLMsg }
%struct.CURLMsg = type { i32, ptr, %union.anon }
%union.anon = type { ptr }
%struct.easy_pollset = type { [5 x i32], i32, [5 x i8] }
%struct.Names = type { ptr, i32 }
%struct.SingleRequest = type <{ i64, i64, i64, i64, %struct.curltime, i32, i32, i32, i32, i64, i32, i32, i32, i32, ptr, ptr, %struct.bufq, i64, i64, ptr, ptr, %union.anon.0, ptr, i8, i32, [3 x i8] }>
%struct.curltime = type { i64, i32 }
%union.anon.0 = type { ptr }
%struct.UserDefined = type <{ ptr, ptr, ptr, ptr, ptr, ptr, i16, [6 x i8], i64, i64, i64, ptr, ptr, i64, i16, i16, [4 x i8], ptr, ptr, ptr, ptr, ptr, ptr, ptr, ptr, ptr, ptr, ptr, ptr, ptr, ptr, ptr, ptr, ptr, ptr, ptr, ptr, ptr, ptr, ptr, i32, i32, i32, i32, i32, [4 x i8], i64, i64, i64, i64, i64, i64, i64, i64, ptr, ptr, %struct.curl_mimepart, ptr, ptr, i64, i8, i8, i8, [5 x i8], %struct.ssl_config_data, %struct.ssl_config_data, ptr, i16, i8, i8, [4 x i8], %struct.ssl_general_config, i32, i32, i32, [4 x i8], ptr, ptr, i8, [7 x i8], i64, i8, i8, i8, i8, i32, ptr, ptr, ptr, i8, i8, [2 x i8], i32, [63 x ptr], [8 x ptr], i32, i32, i32, [4 x i8], ptr, ptr, ptr, ptr, ptr, i8, [3 x i8], i32, i32, i32, i64, %struct.Curl_data_priority, ptr, ptr, i64, ptr, i64, ptr, ptr, ptr, i8, [3 x i8], i32, i8, i8, i64, [6 x i8] }>
%struct.curl_mimepart = type { ptr, ptr, i32, i32, ptr, ptr, ptr, ptr, ptr, ptr, ptr, ptr, ptr, ptr, ptr, i64, %struct.mime_state, ptr, %struct.mime_encoder_state, i64 }
%struct.mime_state = type { i32, ptr, i64 }
%struct.mime_encoder_state = type { i64, i64, i64, [256 x i8] }
%struct.ssl_config_data = type { %struct.ssl_primary_config, i64, ptr, ptr, ptr, ptr, ptr, ptr, ptr, i16 }
%struct.ssl_primary_config = type { ptr, ptr, ptr, ptr, ptr, ptr, ptr, ptr, ptr, ptr, ptr, ptr, i8, i32, i8, i8 }
%struct.ssl_general_config = type { i64, i32 }
%struct.Curl_data_priority = type { ptr, ptr, i32, i8 }
%struct.Progress = type { i64, %struct.pgrs_dir, %struct.pgrs_dir, i64, i64, i32, i32, i64, i64, i64, i64, i64, i64, i64, i64, i64, %struct.curltime, %struct.curltime, %struct.curltime, %struct.curltime, [6 x i64], [6 x %struct.curltime], i32, i8 }
%struct.pgrs_dir = type { i64, i64, i64, %struct.pgrs_measure }
%struct.pgrs_measure = type { %struct.curltime, i64 }
%struct.UrlState = type { %struct.curltime, i64, i64, %struct.dynbuf, ptr, i64, ptr, i32, i32, i32, ptr, i64, i32, i64, i32, ptr, %struct.digestdata, %struct.digestdata, %struct.auth, %struct.auth, %struct.Curl_async, ptr, %struct.curltime, %struct.Curl_tree, %struct.Curl_llist, [15 x %struct.time_node], ptr, ptr, i64, i64, %struct.Curl_data_priority, ptr, ptr, ptr, %struct.urlpieces, ptr, ptr, ptr, ptr, ptr, i64, %struct.dynbuf, %struct.Curl_llist, [2 x %struct.curl_header], ptr, i32, ptr, ptr, %struct.store_netrc, %struct.dynamically_allocated_data, i8, i8, i8, i8, i32 }
%struct.digestdata = type { ptr, ptr, ptr, ptr, ptr, ptr, i32, i8, i8 }
%struct.auth = type { i64, i64, i64, i8 }
%struct.Curl_async = type { ptr, ptr, ptr, ptr, i32, i32, i8 }
%struct.Curl_tree = type { ptr, ptr, ptr, ptr, %struct.curltime, ptr }
%struct.time_node = type { %struct.Curl_llist_node, %struct.curltime, i32 }
%struct.urlpieces = type { ptr, ptr, ptr, ptr, ptr, ptr, ptr, ptr }
%struct.dynbuf = type { ptr, i64, i64, i64 }
%struct.Curl_llist = type { ptr, ptr, ptr, i64 }
%struct.curl_header = type { ptr, ptr, i64, i64, i32, ptr }
%struct.store_netrc = type { %struct.dynbuf, ptr, i8 }
%struct.dynamically_allocated_data = type { ptr, ptr, ptr, ptr, ptr, ptr, ptr, ptr, ptr, ptr, ptr, ptr, ptr }
%struct.PureInfo = type { i32, i32, i32, i64, i64, i64, i64, i64, ptr, ptr, i64, i32, %struct.ip_quadruple, i32, ptr, i32, %struct.curl_certinfo, i32, i8 }
%struct.ip_quadruple = type { [46 x i8], [46 x i8], i32, i32 }
%struct.curl_certinfo = type { i32, ptr }
%struct.curl_tlssessioninfo = type { i32, ptr }
%struct.curl_trc_feat = type { ptr, i32 }

@.str.12 = private unnamed_addr constant [38 x i8] c"[0] nw_out_writer(len=%zu) -> %zd, %d\00", align 1

; Function Attrs: nounwind uwtable
define internal i64 @proxy_h2_nw_out_writer(ptr noundef %0, ptr noundef %1, i64 noundef %2, ptr noundef %3) #0 {
  %5 = alloca ptr, align 8
  %6 = alloca ptr, align 8
  %7 = alloca i64, align 8
  %8 = alloca ptr, align 8
  %9 = alloca ptr, align 8
  %10 = alloca i64, align 8
  %11 = alloca ptr, align 8
  store ptr %0, ptr %5, align 8, !tbaa !116
  store ptr %1, ptr %6, align 8, !tbaa !117
  store i64 %2, ptr %7, align 8, !tbaa !41
  store ptr %3, ptr %8, align 8, !tbaa !116
  call void @llvm.lifetime.start.p0(i64 8, ptr %9) #6
  %12 = load ptr, ptr %5, align 8, !tbaa !116
  store ptr %12, ptr %9, align 8, !tbaa !4
  call void @llvm.lifetime.start.p0(i64 8, ptr %10) #6
  %13 = load ptr, ptr %9, align 8, !tbaa !4
  %14 = icmp ne ptr %13, null
  br i1 %14, label %15, label %82

15:                                               ; preds = %4
  call void @llvm.lifetime.start.p0(i64 8, ptr %11) #6
  %16 = load ptr, ptr %9, align 8, !tbaa !4
  %17 = icmp ne ptr %16, null
  br i1 %17, label %18, label %25

18:                                               ; preds = %15
  %19 = load ptr, ptr %9, align 8, !tbaa !4
  %20 = getelementptr inbounds nuw %struct.Curl_cfilter, ptr %19, i32 0, i32 2
  %21 = load ptr, ptr %20, align 8, !tbaa !11
  %22 = getelementptr inbounds nuw %struct.cf_h2_proxy_ctx, ptr %21, i32 0, i32 1
  %23 = getelementptr inbounds nuw %struct.cf_call_data, ptr %22, i32 0, i32 0
  %24 = load ptr, ptr %23, align 8, !tbaa !29
  br label %26

25:                                               ; preds = %15
  br label %26

26:                                               ; preds = %25, %18
  %27 = phi ptr [ %24, %18 ], [ null, %25 ]
  store ptr %27, ptr %11, align 8, !tbaa !9
  %28 = load ptr, ptr %9, align 8, !tbaa !4
  %29 = getelementptr inbounds nuw %struct.Curl_cfilter, ptr %28, i32 0, i32 1
  %30 = load ptr, ptr %29, align 8, !tbaa !25
  %31 = load ptr, ptr %11, align 8, !tbaa !9
  %32 = load ptr, ptr %6, align 8, !tbaa !117
  %33 = load i64, ptr %7, align 8, !tbaa !41
  %34 = load ptr, ptr %8, align 8, !tbaa !116
  %35 = call i64 @Curl_conn_cf_send(ptr noundef %30, ptr noundef %31, ptr noundef %32, i64 noundef %33, i1 noundef zeroext false, ptr noundef %34)
  store i64 %35, ptr %10, align 8, !tbaa !41
  br label %36

36:                                               ; preds = %26
  %37 = load ptr, ptr %11, align 8, !tbaa !9
  %38 = icmp ne ptr %37, null
  br i1 %38, label %39, label %79

39:                                               ; preds = %36
  %40 = load ptr, ptr %11, align 8, !tbaa !9
  %41 = getelementptr inbounds nuw %struct.Curl_easy, ptr %40, i32 0, i32 15
  %42 = getelementptr inbounds nuw %struct.UserDefined, ptr %41, i32 0, i32 124
  %43 = load i64, ptr %42, align 2
  %44 = lshr i64 %43, 27
  %45 = and i64 %44, 1
  %46 = trunc i64 %45 to i32
  %47 = icmp ne i32 %46, 0
  br i1 %47, label %48, label %79

48:                                               ; preds = %39
  %49 = load ptr, ptr %11, align 8, !tbaa !9
  %50 = getelementptr inbounds nuw %struct.Curl_easy, ptr %49, i32 0, i32 19
  %51 = getelementptr inbounds nuw %struct.UrlState, ptr %50, i32 0, i32 47
  %52 = load ptr, ptr %51, align 8, !tbaa !49
  %53 = icmp ne ptr %52, null
  br i1 %53, label %54, label %62

54:                                               ; preds = %48
  %55 = load ptr, ptr %11, align 8, !tbaa !9
  %56 = getelementptr inbounds nuw %struct.Curl_easy, ptr %55, i32 0, i32 19
  %57 = getelementptr inbounds nuw %struct.UrlState, ptr %56, i32 0, i32 47
  %58 = load ptr, ptr %57, align 8, !tbaa !49
  %59 = getelementptr inbounds nuw %struct.curl_trc_feat, ptr %58, i32 0, i32 1
  %60 = load i32, ptr %59, align 8, !tbaa !111
  %61 = icmp sge i32 %60, 1
  br i1 %61, label %62, label %79

62:                                               ; preds = %54, %48
  %63 = load ptr, ptr %9, align 8, !tbaa !4
  %64 = icmp ne ptr %63, null
  br i1 %64, label %65, label %79

65:                                               ; preds = %62
  %66 = load ptr, ptr %9, align 8, !tbaa !4
  %67 = getelementptr inbounds nuw %struct.Curl_cfilter, ptr %66, i32 0, i32 0
  %68 = load ptr, ptr %67, align 8, !tbaa !43
  %69 = getelementptr inbounds nuw %struct.Curl_cftype, ptr %68, i32 0, i32 2
  %70 = load i32, ptr %69, align 4, !tbaa !113
  %71 = icmp sge i32 %70, 1
  br i1 %71, label %72, label %79

72:                                               ; preds = %65
  %73 = load ptr, ptr %11, align 8, !tbaa !9
  %74 = load ptr, ptr %9, align 8, !tbaa !4
  %75 = load i64, ptr %7, align 8, !tbaa !41
  %76 = load i64, ptr %10, align 8, !tbaa !41
  %77 = load ptr, ptr %8, align 8, !tbaa !116
  %78 = load i32, ptr %77, align 4, !tbaa !22
  call void (ptr, ptr, ptr, ...) @Curl_trc_cf_infof(ptr noundef %73, ptr noundef %74, ptr noundef @.str.12, i64 noundef %75, i64 noundef %76, i32 noundef %78)
  br label %79

79:                                               ; preds = %72, %65, %62, %54, %39, %36
  br label %80

80:                                               ; preds = %79
  br label %81

81:                                               ; preds = %80
  call void @llvm.lifetime.end.p0(i64 8, ptr %11) #6
  br label %83

82:                                               ; preds = %4
  store i64 0, ptr %10, align 8, !tbaa !41
  br label %83

83:                                               ; preds = %82, %81
  %84 = load i64, ptr %10, align 8, !tbaa !41
  call void @llvm.lifetime.end.p0(i64 8, ptr %10) #6
  call void @llvm.lifetime.end.p0(i64 8, ptr %9) #6
  ret i64 %84
}